target datalayout = "e-m:e-p270:32:32-p271:32:32-p272:64:64-i64:64-i128:128-f80:128-n8:16:32:64-S128"
target triple = "x86_64-pc-linux-gnu"

%struct.ffc_params_st = type { ptr, ptr, ptr, ptr, ptr, i64, i32, i32, i32, i32, i32, ptr, ptr, i32 }

@.str.9 = private unnamed_addr constant [36 x i8] c"../openssl/test/ffc_internal_test.c\00", align 1
@.str.10 = private unnamed_addr constant [74 x i8] c"p = BN_bin2bn(dsa_2048_224_sha224_p, sizeof(dsa_2048_224_sha224_p), NULL)\00", align 1
@.str.11 = private unnamed_addr constant [74 x i8] c"q = BN_bin2bn(dsa_2048_224_sha224_q, sizeof(dsa_2048_224_sha224_q), NULL)\00", align 1
@dsa_2048_224_sha224_q = internal constant [28 x i8] c"\F2^N\9A\15\A8\13\DF\A3\17\90\C6\D6^\B1\FB1\F8\B5\B1K\A7m\DEWvo\11", align 16
@.str.12 = private unnamed_addr constant [7 x i8] c"SHA224\00", align 1
@.str.13 = private unnamed_addr constant [82 x i8] c"ossl_ffc_params_FIPS186_4_validate(NULL, &params, FFC_PARAM_TYPE_DSA, &res, NULL)\00", align 1
@dsa_2048_224_sha224_seed = internal constant [28 x i8] c"\D2\B16\D8[\8E\A4\B2j\ABN\85\8BI\F9\DD\E6\A1\CD\ADIR\E9\B36\17\06\CF", align 16
@dsa_2048_224_sha224_counter = internal global i32 2878, align 4
@dsa_2048_224_sha224_bad_seed = internal constant [28 x i8] c"\D2\B16\D8[\8E\A4\B2j\ABN\85\8BI\F9\DD\E6\A1\CD\ADIR\E9\B36\17\06\D0", align 16
@.str.14 = private unnamed_addr constant [74 x i8] c"p = BN_bin2bn(dsa_3072_256_sha512_p, sizeof(dsa_3072_256_sha512_p), NULL)\00", align 1
@.str.15 = private unnamed_addr constant [74 x i8] c"q = BN_bin2bn(dsa_3072_256_sha512_q, sizeof(dsa_3072_256_sha512_q), NULL)\00", align 1
@dsa_3072_256_sha512_q = internal constant [32 x i8] c"\C1\DB\C1!PIc\A3wmL\92\EDX\9E\98\EA\ACz\90\13$\F7\CD\D7\E6\D4\8F\F0EK\F7", align 16
@.str.16 = private unnamed_addr constant [7 x i8] c"SHA512\00", align 1
@dsa_3072_256_sha512_seed = internal constant [32 x i8] c"5$\B5Y\D5'X\10\F6\A2|\9A\0D\C2p\8A\B0AJ\84\0B\FEf\F5:\BFJ\A9\CB\FC\A6\22", align 16
@dsa_3072_256_sha512_counter = internal global i32 1604, align 4
@.str.17 = private unnamed_addr constant [81 x i8] c"ossl_ffc_params_FIPS186_4_validate(NULL, &params, FFC_PARAM_TYPE_DH, &res, NULL)\00", align 1

; Function Attrs: nounwind uwtable
define internal i32 @ffc_params_validate_pq_test() #0 {
  %1 = alloca i32, align 4
  %2 = alloca i32, align 4
  %3 = alloca %struct.ffc_params_st, align 8
  %4 = alloca ptr, align 8
  %5 = alloca ptr, align 8
  call void @llvm.lifetime.start.p0(i64 4, ptr %1) #3
  store i32 0, ptr %1, align 4, !tbaa !4
  call void @llvm.lifetime.start.p0(i64 4, ptr %2) #3
  store i32 -1, ptr %2, align 4, !tbaa !4
  call void @llvm.lifetime.start.p0(i64 96, ptr %3) #3
  call void @llvm.lifetime.start.p0(i64 8, ptr %4) #3
  store ptr null, ptr %4, align 8, !tbaa !8
  call void @llvm.lifetime.start.p0(i64 8, ptr %5) #3
  store ptr null, ptr %5, align 8, !tbaa !8
  call void @ossl_ffc_params_init(ptr noundef %3)
  %6 = call ptr @BN_bin2bn(ptr noundef @dsa_2048_224_sha224_p, i32 noundef 256, ptr noundef null)
  store ptr %6, ptr %4, align 8, !tbaa !8
  %7 = call i32 @test_ptr(ptr noundef @.str.9, i32 noundef 253, ptr noundef @.str.10, ptr noundef %6)
  %8 = icmp ne i32 %7, 0
  br i1 %8, label %10, label %9

9:                                                ; preds = %0
  br label %88

10:                                               ; preds = %0
  %11 = call ptr @BN_bin2bn(ptr noundef @dsa_2048_224_sha224_q, i32 noundef 28, ptr noundef null)
  store ptr %11, ptr %5, align 8, !tbaa !8
  %12 = call i32 @test_ptr(ptr noundef @.str.9, i32 noundef 257, ptr noundef @.str.11, ptr noundef %11)
  %13 = icmp ne i32 %12, 0
  br i1 %13, label %15, label %14

14:                                               ; preds = %10
  br label %88

15:                                               ; preds = %10
  %16 = load ptr, ptr %5, align 8, !tbaa !8
  call void @ossl_ffc_params_set0_pqg(ptr noundef %3, ptr noundef null, ptr noundef %16, ptr noundef null)
  store ptr null, ptr %5, align 8, !tbaa !8
  call void @ossl_ffc_params_set_flags(ptr noundef %3, i32 noundef 1)
  call void @ossl_ffc_set_digest(ptr noundef %3, ptr noundef @.str.12, ptr noundef null)
  %17 = call i32 @ossl_ffc_params_FIPS186_4_validate(ptr noundef null, ptr noundef %3, i32 noundef 0, ptr noundef %2, ptr noundef null)
  %18 = icmp ne i32 %17, 0
  %19 = zext i1 %18 to i32
  %20 = call i32 @test_false(ptr noundef @.str.9, i32 noundef 268, ptr noundef @.str.13, i32 noundef %19)
  %21 = icmp ne i32 %20, 0
  br i1 %21, label %23, label %22

22:                                               ; preds = %15
  br label %88

23:                                               ; preds = %15
  %24 = load ptr, ptr %4, align 8, !tbaa !8
  call void @ossl_ffc_params_set0_pqg(ptr noundef %3, ptr noundef %24, ptr noundef null, ptr noundef null)
  store ptr null, ptr %4, align 8, !tbaa !8
  %25 = load i32, ptr @dsa_2048_224_sha224_counter, align 4, !tbaa !4
  %26 = call i32 @ossl_ffc_params_set_validate_params(ptr noundef %3, ptr noundef @dsa_2048_224_sha224_seed, i64 noundef 28, i32 noundef %25)
  %27 = call i32 @ossl_ffc_params_FIPS186_4_validate(ptr noundef null, ptr noundef %3, i32 noundef 0, ptr noundef %2, ptr noundef null)
  %28 = icmp ne i32 %27, 0
  %29 = zext i1 %28 to i32
  %30 = call i32 @test_true(ptr noundef @.str.9, i32 noundef 279, ptr noundef @.str.13, i32 noundef %29)
  %31 = icmp ne i32 %30, 0
  br i1 %31, label %33, label %32

32:                                               ; preds = %23
  br label %88

33:                                               ; preds = %23
  %34 = call i32 @ossl_ffc_params_set_validate_params(ptr noundef %3, ptr noundef @dsa_2048_224_sha224_seed, i64 noundef 28, i32 noundef 1)
  %35 = call i32 @ossl_ffc_params_FIPS186_4_validate(ptr noundef null, ptr noundef %3, i32 noundef 0, ptr noundef %2, ptr noundef null)
  %36 = icmp ne i32 %35, 0
  %37 = zext i1 %36 to i32
  %38 = call i32 @test_false(ptr noundef @.str.9, i32 noundef 288, ptr noundef @.str.13, i32 noundef %37)
  %39 = icmp ne i32 %38, 0
  br i1 %39, label %41, label %40

40:                                               ; preds = %33
  br label %88

41:                                               ; preds = %33
  %42 = load i32, ptr @dsa_2048_224_sha224_counter, align 4, !tbaa !4
  %43 = call i32 @ossl_ffc_params_set_validate_params(ptr noundef %3, ptr noundef @dsa_2048_224_sha224_seed, i64 noundef 27, i32 noundef %42)
  %44 = call i32 @ossl_ffc_params_FIPS186_4_validate(ptr noundef null, ptr noundef %3, i32 noundef 0, ptr noundef %2, ptr noundef null)
  %45 = icmp ne i32 %44, 0
  %46 = zext i1 %45 to i32
  %47 = call i32 @test_false(ptr noundef @.str.9, i32 noundef 297, ptr noundef @.str.13, i32 noundef %46)
  %48 = icmp ne i32 %47, 0
  br i1 %48, label %50, label %49

49:                                               ; preds = %41
  br label %88

50:                                               ; preds = %41
  %51 = load i32, ptr @dsa_2048_224_sha224_counter, align 4, !tbaa !4
  %52 = call i32 @ossl_ffc_params_set_validate_params(ptr noundef %3, ptr noundef @dsa_2048_224_sha224_bad_seed, i64 noundef 28, i32 noundef %51)
  %53 = call i32 @ossl_ffc_params_FIPS186_4_validate(ptr noundef null, ptr noundef %3, i32 noundef 0, ptr noundef %2, ptr noundef null)
  %54 = icmp ne i32 %53, 0
  %55 = zext i1 %54 to i32
  %56 = call i32 @test_false(ptr noundef @.str.9, i32 noundef 306, ptr noundef @.str.13, i32 noundef %55)
  %57 = icmp ne i32 %56, 0
  br i1 %57, label %59, label %58

58:                                               ; preds = %50
  br label %88

59:                                               ; preds = %50
  %60 = call ptr @BN_bin2bn(ptr noundef @dsa_3072_256_sha512_p, i32 noundef 384, ptr noundef null)
  store ptr %60, ptr %4, align 8, !tbaa !8
  %61 = call i32 @test_ptr(ptr noundef @.str.9, i32 noundef 310, ptr noundef @.str.14, ptr noundef %60)
  %62 = icmp ne i32 %61, 0
  br i1 %62, label %64, label %63

63:                                               ; preds = %59
  br label %88

64:                                               ; preds = %59
  %65 = call ptr @BN_bin2bn(ptr noundef @dsa_3072_256_sha512_q, i32 noundef 32, ptr noundef null)
  store ptr %65, ptr %5, align 8, !tbaa !8
  %66 = call i32 @test_ptr(ptr noundef @.str.9, i32 noundef 314, ptr noundef @.str.15, ptr noundef %65)
  %67 = icmp ne i32 %66, 0
  br i1 %67, label %69, label %68

68:                                               ; preds = %64
  br label %88

69:                                               ; preds = %64
  %70 = load ptr, ptr %4, align 8, !tbaa !8
  %71 = load ptr, ptr %5, align 8, !tbaa !8
  call void @ossl_ffc_params_set0_pqg(ptr noundef %3, ptr noundef %70, ptr noundef %71, ptr noundef null)
  store ptr null, ptr %5, align 8, !tbaa !8
  store ptr null, ptr %4, align 8, !tbaa !8
  call void @ossl_ffc_set_digest(ptr noundef %3, ptr noundef @.str.16, ptr noundef null)
  %72 = load i32, ptr @dsa_3072_256_sha512_counter, align 4, !tbaa !4
  %73 = call i32 @ossl_ffc_params_set_validate_params(ptr noundef %3, ptr noundef @dsa_3072_256_sha512_seed, i64 noundef 32, i32 noundef %72)
  %74 = call i32 @ossl_ffc_params_FIPS186_4_validate(ptr noundef null, ptr noundef %3, i32 noundef 0, ptr noundef %2, ptr noundef null)
  %75 = icmp ne i32 %74, 0
  %76 = zext i1 %75 to i32
  %77 = call i32 @test_false(ptr noundef @.str.9, i32 noundef 327, ptr noundef @.str.13, i32 noundef %76)
  %78 = icmp ne i32 %77, 0
  br i1 %78, label %80, label %79

79:                                               ; preds = %69
  br label %88

80:                                               ; preds = %69
  %81 = call i32 @ossl_ffc_params_FIPS186_4_validate(ptr noundef null, ptr noundef %3, i32 noundef 1, ptr noundef %2, ptr noundef null)
  %82 = icmp ne i32 %81, 0
  %83 = zext i1 %82 to i32
  %84 = call i32 @test_false(ptr noundef @.str.9, i32 noundef 333, ptr noundef @.str.17, i32 noundef %83)
  %85 = icmp ne i32 %84, 0
  br i1 %85, label %87, label %86

86:                                               ; preds = %80
  br label %88

87:                                               ; preds = %80
  store i32 1, ptr %1, align 4, !tbaa !4
  br label %88

88:                                               ; preds = %87, %86, %79, %68, %63, %58, %49, %40, %32, %22, %14, %9
  call void @ossl_ffc_params_cleanup(ptr noundef %3)
  %89 = load ptr, ptr %4, align 8, !tbaa !8
  call void @BN_free(ptr noundef %89)
  %90 = load ptr, ptr %5, align 8, !tbaa !8
  call void @BN_free(ptr noundef %90)
  %91 = load i32, ptr %1, align 4, !tbaa !4
  call void @llvm.lifetime.end.p0(i64 8, ptr %5) #3
  call void @llvm.lifetime.end.p0(i64 8, ptr %4) #3
  call void @llvm.lifetime.end.p0(i64 96, ptr %3) #3
  call void @llvm.lifetime.end.p0(i64 4, ptr %2) #3
  call void @llvm.lifetime.end.p0(i64 4, ptr %1) #3
  ret i32 %91
}