; Function Attrs: nounwind uwtable
define internal range(i32 0, 2) i32 @ffc_params_validate_pq_test() #0 {
  %1 = alloca i32, align 4
  %2 = alloca %struct.ffc_params_st, align 8
  call void @llvm.lifetime.start.p0(i64 4, ptr nonnull %1) #3
  store i32 -1, ptr %1, align 4, !tbaa !4
  call void @llvm.lifetime.start.p0(i64 96, ptr nonnull %2) #3
  call void @ossl_ffc_params_init(ptr noundef nonnull %2) #3
  %3 = call ptr @BN_bin2bn(ptr noundef nonnull @dsa_2048_224_sha224_p, i32 noundef 256, ptr noundef null) #3
  %4 = call i32 @test_ptr(ptr noundef nonnull @.str.9, i32 noundef 253, ptr noundef nonnull @.str.10, ptr noundef %3) #3
  %.not = icmp eq i32 %4, 0
  br i1 %.not, label %54, label %5

5:                                                ; preds = %0
  %6 = call ptr @BN_bin2bn(ptr noundef nonnull @dsa_2048_224_sha224_q, i32 noundef 28, ptr noundef null) #3
  %7 = call i32 @test_ptr(ptr noundef nonnull @.str.9, i32 noundef 257, ptr noundef nonnull @.str.11, ptr noundef %6) #3
  %.not8 = icmp eq i32 %7, 0
  br i1 %.not8, label %54, label %8

8:                                                ; preds = %5
  call void @ossl_ffc_params_set0_pqg(ptr noundef nonnull %2, ptr noundef null, ptr noundef %6, ptr noundef null) #3
  call void @ossl_ffc_params_set_flags(ptr noundef nonnull %2, i32 noundef 1) #3
  call void @ossl_ffc_set_digest(ptr noundef nonnull %2, ptr noundef nonnull @.str.12, ptr noundef null) #3
  %9 = call i32 @ossl_ffc_params_FIPS186_4_validate(ptr noundef null, ptr noundef nonnull %2, i32 noundef 0, ptr noundef nonnull %1, ptr noundef null) #3
  %10 = icmp ne i32 %9, 0
  %11 = zext i1 %10 to i32
  %12 = call i32 @test_false(ptr noundef nonnull @.str.9, i32 noundef 268, ptr noundef nonnull @.str.13, i32 noundef %11) #3
  %.not9 = icmp eq i32 %12, 0
  br i1 %.not9, label %54, label %13

13:                                               ; preds = %8
  call void @ossl_ffc_params_set0_pqg(ptr noundef nonnull %2, ptr noundef %3, ptr noundef null, ptr noundef null) #3
  %14 = call i32 @ossl_ffc_params_set_validate_params(ptr noundef nonnull %2, ptr noundef nonnull @dsa_2048_224_sha224_seed, i64 noundef 28, i32 noundef 2878) #3
  %15 = call i32 @ossl_ffc_params_FIPS186_4_validate(ptr noundef null, ptr noundef nonnull %2, i32 noundef 0, ptr noundef nonnull %1, ptr noundef null) #3
  %16 = icmp ne i32 %15, 0
  %17 = zext i1 %16 to i32
  %18 = call i32 @test_true(ptr noundef nonnull @.str.9, i32 noundef 279, ptr noundef nonnull @.str.13, i32 noundef %17) #3
  %.not10 = icmp eq i32 %18, 0
  br i1 %.not10, label %54, label %19

19:                                               ; preds = %13
  %20 = call i32 @ossl_ffc_params_set_validate_params(ptr noundef nonnull %2, ptr noundef nonnull @dsa_2048_224_sha224_seed, i64 noundef 28, i32 noundef 1) #3
  %21 = call i32 @ossl_ffc_params_FIPS186_4_validate(ptr noundef null, ptr noundef nonnull %2, i32 noundef 0, ptr noundef nonnull %1, ptr noundef null) #3
  %22 = icmp ne i32 %21, 0
  %23 = zext i1 %22 to i32
  %24 = call i32 @test_false(ptr noundef nonnull @.str.9, i32 noundef 288, ptr noundef nonnull @.str.13, i32 noundef %23) #3
  %.not11 = icmp eq i32 %24, 0
  br i1 %.not11, label %54, label %25

25:                                               ; preds = %19
  %26 = call i32 @ossl_ffc_params_set_validate_params(ptr noundef nonnull %2, ptr noundef nonnull @dsa_2048_224_sha224_seed, i64 noundef 27, i32 noundef 2878) #3
  %27 = call i32 @ossl_ffc_params_FIPS186_4_validate(ptr noundef null, ptr noundef nonnull %2, i32 noundef 0, ptr noundef nonnull %1, ptr noundef null) #3
  %28 = icmp ne i32 %27, 0
  %29 = zext i1 %28 to i32
  %30 = call i32 @test_false(ptr noundef nonnull @.str.9, i32 noundef 297, ptr noundef nonnull @.str.13, i32 noundef %29) #3
  %.not12 = icmp eq i32 %30, 0
  br i1 %.not12, label %54, label %31

31:                                               ; preds = %25
  %32 = call i32 @ossl_ffc_params_set_validate_params(ptr noundef nonnull %2, ptr noundef nonnull @dsa_2048_224_sha224_bad_seed, i64 noundef 28, i32 noundef 2878) #3
  %33 = call i32 @ossl_ffc_params_FIPS186_4_validate(ptr noundef null, ptr noundef nonnull %2, i32 noundef 0, ptr noundef nonnull %1, ptr noundef null) #3
  %34 = icmp ne i32 %33, 0
  %35 = zext i1 %34 to i32
  %36 = call i32 @test_false(ptr noundef nonnull @.str.9, i32 noundef 306, ptr noundef nonnull @.str.13, i32 noundef %35) #3
  %.not13 = icmp eq i32 %36, 0
  br i1 %.not13, label %54, label %37

37:                                               ; preds = %31
  %38 = call ptr @BN_bin2bn(ptr noundef nonnull @dsa_3072_256_sha512_p, i32 noundef 384, ptr noundef null) #3
  %39 = call i32 @test_ptr(ptr noundef nonnull @.str.9, i32 noundef 310, ptr noundef nonnull @.str.14, ptr noundef %38) #3
  %.not14 = icmp eq i32 %39, 0
  br i1 %.not14, label %54, label %40

40:                                               ; preds = %37
  %41 = call ptr @BN_bin2bn(ptr noundef nonnull @dsa_3072_256_sha512_q, i32 noundef 32, ptr noundef null) #3
  %42 = call i32 @test_ptr(ptr noundef nonnull @.str.9, i32 noundef 314, ptr noundef nonnull @.str.15, ptr noundef %41) #3
  %.not15 = icmp eq i32 %42, 0
  br i1 %.not15, label %54, label %43

43:                                               ; preds = %40
  call void @ossl_ffc_params_set0_pqg(ptr noundef nonnull %2, ptr noundef %38, ptr noundef %41, ptr noundef null) #3
  call void @ossl_ffc_set_digest(ptr noundef nonnull %2, ptr noundef nonnull @.str.16, ptr noundef null) #3
  %44 = call i32 @ossl_ffc_params_set_validate_params(ptr noundef nonnull %2, ptr noundef nonnull @dsa_3072_256_sha512_seed, i64 noundef 32, i32 noundef 1604) #3
  %45 = call i32 @ossl_ffc_params_FIPS186_4_validate(ptr noundef null, ptr noundef nonnull %2, i32 noundef 0, ptr noundef nonnull %1, ptr noundef null) #3
  %46 = icmp ne i32 %45, 0
  %47 = zext i1 %46 to i32
  %48 = call i32 @test_false(ptr noundef nonnull @.str.9, i32 noundef 327, ptr noundef nonnull @.str.13, i32 noundef %47) #3
  %.not16 = icmp eq i32 %48, 0
  br i1 %.not16, label %54, label %49

49:                                               ; preds = %43
  %50 = call i32 @ossl_ffc_params_FIPS186_4_validate(ptr noundef null, ptr noundef nonnull %2, i32 noundef 1, ptr noundef nonnull %1, ptr noundef null) #3
  %51 = icmp ne i32 %50, 0
  %52 = zext i1 %51 to i32
  %53 = call i32 @test_false(ptr noundef nonnull @.str.9, i32 noundef 333, ptr noundef nonnull @.str.17, i32 noundef %52) #3
  %.not17 = icmp ne i32 %53, 0
  %spec.select = zext i1 %.not17 to i32
  br label %54

54:                                               ; preds = %49, %43, %40, %37, %31, %25, %19, %13, %8, %5, %0
  %.07 = phi i32 [ 0, %43 ], [ 0, %40 ], [ 0, %37 ], [ 0, %31 ], [ 0, %25 ], [ 0, %19 ], [ 0, %13 ], [ 0, %8 ], [ 0, %5 ], [ 0, %0 ], [ %spec.select, %49 ]
  %.06 = phi ptr [ null, %43 ], [ %38, %40 ], [ %38, %37 ], [ null, %31 ], [ null, %25 ], [ null, %19 ], [ null, %13 ], [ %3, %8 ], [ %3, %5 ], [ %3, %0 ], [ null, %49 ]
  %.0 = phi ptr [ null, %43 ], [ %41, %40 ], [ null, %37 ], [ null, %31 ], [ null, %25 ], [ null, %19 ], [ null, %13 ], [ null, %8 ], [ %6, %5 ], [ null, %0 ], [ null, %49 ]
  call void @ossl_ffc_params_cleanup(ptr noundef nonnull %2) #3
  call void @BN_free(ptr noundef %.06) #3
  call void @BN_free(ptr noundef %.0) #3
  call void @llvm.lifetime.end.p0(i64 96, ptr nonnull %2) #3
  call void @llvm.lifetime.end.p0(i64 4, ptr nonnull %1) #3
  ret i32 %.07
}